target datalayout = "e-m:e-p270:32:32-p271:32:32-p272:64:64-i64:64-i128:128-f80:128-n8:16:32:64-S128"
target triple = "x86_64-pc-linux-gnu"

; Function Attrs: nounwind uwtable
define internal i64 @tar_atol_base_n(ptr noundef %0, i64 noundef %1, i32 noundef %2) #0 {
  %4 = alloca i64, align 8
  %5 = alloca ptr, align 8
  %6 = alloca i64, align 8
  %7 = alloca i32, align 4
  %8 = alloca i64, align 8
  %9 = alloca i64, align 8
  %10 = alloca i64, align 8
  %11 = alloca i64, align 8
  %12 = alloca i32, align 4
  %13 = alloca i32, align 4
  %14 = alloca i32, align 4
  store ptr %0, ptr %5, align 8, !tbaa !15
  store i64 %1, ptr %6, align 8, !tbaa !46
  store i32 %2, ptr %7, align 4, !tbaa !9
  call void @llvm.lifetime.start.p0(i64 8, ptr %8) #10
  call void @llvm.lifetime.start.p0(i64 8, ptr %9) #10
  call void @llvm.lifetime.start.p0(i64 8, ptr %10) #10
  call void @llvm.lifetime.start.p0(i64 8, ptr %11) #10
  call void @llvm.lifetime.start.p0(i64 4, ptr %12) #10
  call void @llvm.lifetime.start.p0(i64 4, ptr %13) #10
  store i64 9223372036854775807, ptr %9, align 8, !tbaa !46
  %15 = load i32, ptr %7, align 4, !tbaa !9
  %16 = sext i32 %15 to i64
  %17 = sdiv i64 9223372036854775807, %16
  store i64 %17, ptr %10, align 8, !tbaa !46
  %18 = load i32, ptr %7, align 4, !tbaa !9
  %19 = sext i32 %18 to i64
  %20 = srem i64 9223372036854775807, %19
  store i64 %20, ptr %11, align 8, !tbaa !46
  br label %21

21:                                               ; preds = %38, %3
  %22 = load i64, ptr %6, align 8, !tbaa !46
  %23 = icmp ne i64 %22, 0
  br i1 %23, label %24, label %36

24:                                               ; preds = %21
  %25 = load ptr, ptr %5, align 8, !tbaa !15
  %26 = load i8, ptr %25, align 1, !tbaa !17
  %27 = sext i8 %26 to i32
  %28 = icmp eq i32 %27, 32
  br i1 %28, label %34, label %29

29:                                               ; preds = %24
  %30 = load ptr, ptr %5, align 8, !tbaa !15
  %31 = load i8, ptr %30, align 1, !tbaa !17
  %32 = sext i8 %31 to i32
  %33 = icmp eq i32 %32, 9
  br label %34

34:                                               ; preds = %29, %24
  %35 = phi i1 [ true, %24 ], [ %33, %29 ]
  br label %36

36:                                               ; preds = %34, %21
  %37 = phi i1 [ false, %21 ], [ %35, %34 ]
  br i1 %37, label %38, label %43

38:                                               ; preds = %36
  %39 = load ptr, ptr %5, align 8, !tbaa !15
  %40 = getelementptr inbounds nuw i8, ptr %39, i32 1
  store ptr %40, ptr %5, align 8, !tbaa !15
  %41 = load i64, ptr %6, align 8, !tbaa !46
  %42 = add i64 %41, -1
  store i64 %42, ptr %6, align 8, !tbaa !46
  br label %21, !llvm.loop !86

43:                                               ; preds = %36
  store i32 1, ptr %13, align 4, !tbaa !9
  %44 = load i64, ptr %6, align 8, !tbaa !46
  %45 = icmp ne i64 %44, 0
  br i1 %45, label %46, label %64

46:                                               ; preds = %43
  %47 = load ptr, ptr %5, align 8, !tbaa !15
  %48 = load i8, ptr %47, align 1, !tbaa !17
  %49 = sext i8 %48 to i32
  %50 = icmp eq i32 %49, 45
  br i1 %50, label %51, label %64

51:                                               ; preds = %46
  store i32 -1, ptr %13, align 4, !tbaa !9
  %52 = load ptr, ptr %5, align 8, !tbaa !15
  %53 = getelementptr inbounds nuw i8, ptr %52, i32 1
  store ptr %53, ptr %5, align 8, !tbaa !15
  %54 = load i64, ptr %6, align 8, !tbaa !46
  %55 = add i64 %54, -1
  store i64 %55, ptr %6, align 8, !tbaa !46
  store i64 -9223372036854775808, ptr %9, align 8, !tbaa !46
  %56 = load i32, ptr %7, align 4, !tbaa !9
  %57 = sext i32 %56 to i64
  %58 = sdiv i64 -9223372036854775808, %57
  %59 = sub nsw i64 0, %58
  store i64 %59, ptr %10, align 8, !tbaa !46
  %60 = load i32, ptr %7, align 4, !tbaa !9
  %61 = sext i32 %60 to i64
  %62 = srem i64 -9223372036854775808, %61
  %63 = sub nsw i64 0, %62
  store i64 %63, ptr %11, align 8, !tbaa !46
  br label %64

64:                                               ; preds = %51, %46, %43
  store i64 0, ptr %8, align 8, !tbaa !46
  %65 = load i64, ptr %6, align 8, !tbaa !46
  %66 = icmp ne i64 %65, 0
  br i1 %66, label %67, label %115

67:                                               ; preds = %64
  %68 = load ptr, ptr %5, align 8, !tbaa !15
  %69 = load i8, ptr %68, align 1, !tbaa !17
  %70 = sext i8 %69 to i32
  %71 = sub nsw i32 %70, 48
  store i32 %71, ptr %12, align 4, !tbaa !9
  br label %72

72:                                               ; preds = %99, %67
  %73 = load i32, ptr %12, align 4, !tbaa !9
  %74 = icmp sge i32 %73, 0
  br i1 %74, label %75, label %82

75:                                               ; preds = %72
  %76 = load i32, ptr %12, align 4, !tbaa !9
  %77 = load i32, ptr %7, align 4, !tbaa !9
  %78 = icmp slt i32 %76, %77
  br i1 %78, label %79, label %82

79:                                               ; preds = %75
  %80 = load i64, ptr %6, align 8, !tbaa !46
  %81 = icmp ne i64 %80, 0
  br label %82

82:                                               ; preds = %79, %75, %72
  %83 = phi i1 [ false, %75 ], [ false, %72 ], [ %81, %79 ]
  br i1 %83, label %84, label %114

84:                                               ; preds = %82
  %85 = load i64, ptr %8, align 8, !tbaa !46
  %86 = load i64, ptr %10, align 8, !tbaa !46
  %87 = icmp sgt i64 %85, %86
  br i1 %87, label %97, label %88

88:                                               ; preds = %84
  %89 = load i64, ptr %8, align 8, !tbaa !46
  %90 = load i64, ptr %10, align 8, !tbaa !46
  %91 = icmp eq i64 %89, %90
  br i1 %91, label %92, label %99

92:                                               ; preds = %88
  %93 = load i32, ptr %12, align 4, !tbaa !9
  %94 = sext i32 %93 to i64
  %95 = load i64, ptr %11, align 8, !tbaa !46
  %96 = icmp sge i64 %94, %95
  br i1 %96, label %97, label %99

97:                                               ; preds = %92, %84
  %98 = load i64, ptr %9, align 8, !tbaa !46
  store i64 %98, ptr %4, align 8
  store i32 1, ptr %14, align 4
  br label %125

99:                                               ; preds = %92, %88
  %100 = load i64, ptr %8, align 8, !tbaa !46
  %101 = load i32, ptr %7, align 4, !tbaa !9
  %102 = sext i32 %101 to i64
  %103 = mul nsw i64 %100, %102
  %104 = load i32, ptr %12, align 4, !tbaa !9
  %105 = sext i32 %104 to i64
  %106 = add nsw i64 %103, %105
  store i64 %106, ptr %8, align 8, !tbaa !46
  %107 = load ptr, ptr %5, align 8, !tbaa !15
  %108 = getelementptr inbounds nuw i8, ptr %107, i32 1
  store ptr %108, ptr %5, align 8, !tbaa !15
  %109 = load i8, ptr %108, align 1, !tbaa !17
  %110 = sext i8 %109 to i32
  %111 = sub nsw i32 %110, 48
  store i32 %111, ptr %12, align 4, !tbaa !9
  %112 = load i64, ptr %6, align 8, !tbaa !46
  %113 = add i64 %112, -1
  store i64 %113, ptr %6, align 8, !tbaa !46
  br label %72, !llvm.loop !87

114:                                              ; preds = %82
  br label %115

115:                                              ; preds = %114, %64
  %116 = load i32, ptr %13, align 4, !tbaa !9
  %117 = icmp slt i32 %116, 0
  br i1 %117, label %118, label %121

118:                                              ; preds = %115
  %119 = load i64, ptr %8, align 8, !tbaa !46
  %120 = sub nsw i64 0, %119
  br label %123

121:                                              ; preds = %115
  %122 = load i64, ptr %8, align 8, !tbaa !46
  br label %123

123:                                              ; preds = %121, %118
  %124 = phi i64 [ %120, %118 ], [ %122, %121 ]
  store i64 %124, ptr %4, align 8
  store i32 1, ptr %14, align 4
  br label %125

125:                                              ; preds = %123, %97
  call void @llvm.lifetime.end.p0(i64 4, ptr %13) #10
  call void @llvm.lifetime.end.p0(i64 4, ptr %12) #10
  call void @llvm.lifetime.end.p0(i64 8, ptr %11) #10
  call void @llvm.lifetime.end.p0(i64 8, ptr %10) #10
  call void @llvm.lifetime.end.p0(i64 8, ptr %9) #10
  call void @llvm.lifetime.end.p0(i64 8, ptr %8) #10
  %126 = load i64, ptr %4, align 8
  ret i64 %126
}

; Function Attrs: nounwind uwtable
define internal i64 @tar_atol8(ptr noundef %0, i64 noundef %1) #0 {
  %3 = alloca ptr, align 8
  %4 = alloca i64, align 8
  store ptr %0, ptr %3, align 8, !tbaa !15
  store i64 %1, ptr %4, align 8, !tbaa !46
  %5 = load ptr, ptr %3, align 8, !tbaa !15
  %6 = load i64, ptr %4, align 8, !tbaa !46
  %7 = call i64 @tar_atol_base_n(ptr noundef %5, i64 noundef %6, i32 noundef 8)
  ret i64 %7
}

; Function Attrs: nounwind uwtable
define internal i64 @tar_atol256(ptr noundef %0, i64 noundef %1) #0 {
  %3 = alloca i64, align 8
  %4 = alloca ptr, align 8
  %5 = alloca i64, align 8
  %6 = alloca i64, align 8
  %7 = alloca ptr, align 8
  %8 = alloca i8, align 1
  %9 = alloca i8, align 1
  %10 = alloca i32, align 4
  store ptr %0, ptr %4, align 8, !tbaa !15
  store i64 %1, ptr %5, align 8, !tbaa !46
  call void @llvm.lifetime.start.p0(i64 8, ptr %6) #10
  call void @llvm.lifetime.start.p0(i64 8, ptr %7) #10
  %11 = load ptr, ptr %4, align 8, !tbaa !15
  store ptr %11, ptr %7, align 8, !tbaa !15
  call void @llvm.lifetime.start.p0(i64 1, ptr %8) #10
  call void @llvm.lifetime.start.p0(i64 1, ptr %9) #10
  %12 = load ptr, ptr %7, align 8, !tbaa !15
  %13 = load i8, ptr %12, align 1, !tbaa !17
  store i8 %13, ptr %8, align 1, !tbaa !17
  %14 = load i8, ptr %8, align 1, !tbaa !17
  %15 = zext i8 %14 to i32
  %16 = and i32 %15, 64
  %17 = icmp ne i32 %16, 0
  br i1 %17, label %18, label %23

18:                                               ; preds = %2
  store i8 -1, ptr %9, align 1, !tbaa !17
  %19 = load i8, ptr %8, align 1, !tbaa !17
  %20 = zext i8 %19 to i32
  %21 = or i32 %20, 128
  %22 = trunc i32 %21 to i8
  store i8 %22, ptr %8, align 1, !tbaa !17
  store i64 -1, ptr %6, align 8, !tbaa !46
  br label %28

23:                                               ; preds = %2
  store i8 0, ptr %9, align 1, !tbaa !17
  %24 = load i8, ptr %8, align 1, !tbaa !17
  %25 = zext i8 %24 to i32
  %26 = and i32 %25, 127
  %27 = trunc i32 %26 to i8
  store i8 %27, ptr %8, align 1, !tbaa !17
  store i64 0, ptr %6, align 8, !tbaa !46
  br label %28

28:                                               ; preds = %23, %18
  br label %29

29:                                               ; preds = %45, %28
  %30 = load i64, ptr %5, align 8, !tbaa !46
  %31 = icmp ugt i64 %30, 8
  br i1 %31, label %32, label %49

32:                                               ; preds = %29
  %33 = load i64, ptr %5, align 8, !tbaa !46
  %34 = add i64 %33, -1
  store i64 %34, ptr %5, align 8, !tbaa !46
  %35 = load i8, ptr %8, align 1, !tbaa !17
  %36 = zext i8 %35 to i32
  %37 = load i8, ptr %9, align 1, !tbaa !17
  %38 = zext i8 %37 to i32
  %39 = icmp ne i32 %36, %38
  br i1 %39, label %40, label %45

40:                                               ; preds = %32
  %41 = load i8, ptr %9, align 1, !tbaa !17
  %42 = zext i8 %41 to i32
  %43 = icmp ne i32 %42, 0
  %44 = select i1 %43, i64 -9223372036854775808, i64 9223372036854775807
  store i64 %44, ptr %3, align 8
  store i32 1, ptr %10, align 4
  br label %83

45:                                               ; preds = %32
  %46 = load ptr, ptr %7, align 8, !tbaa !15
  %47 = getelementptr inbounds nuw i8, ptr %46, i32 1
  store ptr %47, ptr %7, align 8, !tbaa !15
  %48 = load i8, ptr %47, align 1, !tbaa !17
  store i8 %48, ptr %8, align 1, !tbaa !17
  br label %29, !llvm.loop !84

49:                                               ; preds = %29
  %50 = load i8, ptr %8, align 1, !tbaa !17
  %51 = zext i8 %50 to i32
  %52 = load i8, ptr %9, align 1, !tbaa !17
  %53 = zext i8 %52 to i32
  %54 = xor i32 %51, %53
  %55 = and i32 %54, 128
  %56 = icmp ne i32 %55, 0
  br i1 %56, label %57, label %62

57:                                               ; preds = %49
  %58 = load i8, ptr %9, align 1, !tbaa !17
  %59 = zext i8 %58 to i32
  %60 = icmp ne i32 %59, 0
  %61 = select i1 %60, i64 -9223372036854775808, i64 9223372036854775807
  store i64 %61, ptr %3, align 8
  store i32 1, ptr %10, align 4
  br label %83

62:                                               ; preds = %49
  br label %63

63:                                               ; preds = %67, %62
  %64 = load i64, ptr %5, align 8, !tbaa !46
  %65 = add i64 %64, -1
  store i64 %65, ptr %5, align 8, !tbaa !46
  %66 = icmp ugt i64 %65, 0
  br i1 %66, label %67, label %76

67:                                               ; preds = %63
  %68 = load i64, ptr %6, align 8, !tbaa !46
  %69 = shl i64 %68, 8
  %70 = load i8, ptr %8, align 1, !tbaa !17
  %71 = zext i8 %70 to i64
  %72 = or i64 %69, %71
  store i64 %72, ptr %6, align 8, !tbaa !46
  %73 = load ptr, ptr %7, align 8, !tbaa !15
  %74 = getelementptr inbounds nuw i8, ptr %73, i32 1
  store ptr %74, ptr %7, align 8, !tbaa !15
  %75 = load i8, ptr %74, align 1, !tbaa !17
  store i8 %75, ptr %8, align 1, !tbaa !17
  br label %63, !llvm.loop !85

76:                                               ; preds = %63
  %77 = load i64, ptr %6, align 8, !tbaa !46
  %78 = shl i64 %77, 8
  %79 = load i8, ptr %8, align 1, !tbaa !17
  %80 = zext i8 %79 to i64
  %81 = or i64 %78, %80
  store i64 %81, ptr %6, align 8, !tbaa !46
  %82 = load i64, ptr %6, align 8, !tbaa !46
  store i64 %82, ptr %3, align 8
  store i32 1, ptr %10, align 4
  br label %83

83:                                               ; preds = %76, %57, %40
  call void @llvm.lifetime.end.p0(i64 1, ptr %9) #10
  call void @llvm.lifetime.end.p0(i64 1, ptr %8) #10
  call void @llvm.lifetime.end.p0(i64 8, ptr %7) #10
  call void @llvm.lifetime.end.p0(i64 8, ptr %6) #10
  %84 = load i64, ptr %3, align 8
  ret i64 %84
}

; Function Attrs: nounwind uwtable
define internal i64 @tar_atol(ptr noundef %0, i64 noundef %1) #0 {
  %3 = alloca i64, align 8
  %4 = alloca ptr, align 8
  %5 = alloca i64, align 8
  store ptr %0, ptr %4, align 8, !tbaa !15
  store i64 %1, ptr %5, align 8, !tbaa !46
  %6 = load ptr, ptr %4, align 8, !tbaa !15
  %7 = load i8, ptr %6, align 1, !tbaa !17
  %8 = sext i8 %7 to i32
  %9 = and i32 %8, 128
  %10 = icmp ne i32 %9, 0
  br i1 %10, label %11, label %15

11:                                               ; preds = %2
  %12 = load ptr, ptr %4, align 8, !tbaa !15
  %13 = load i64, ptr %5, align 8, !tbaa !46
  %14 = call i64 @tar_atol256(ptr noundef %12, i64 noundef %13)
  store i64 %14, ptr %3, align 8
  br label %19

15:                                               ; preds = %2
  %16 = load ptr, ptr %4, align 8, !tbaa !15
  %17 = load i64, ptr %5, align 8, !tbaa !46
  %18 = call i64 @tar_atol8(ptr noundef %16, i64 noundef %17)
  store i64 %18, ptr %3, align 8
  br label %19

19:                                               ; preds = %15, %11
  %20 = load i64, ptr %3, align 8
  ret i64 %20
}