; Function Attrs: nofree norecurse nosync nounwind memory(argmem: read) uwtable
define internal fastcc i64 @tar_atol(ptr noundef nonnull readonly captures(none) %0, i64 noundef range(i64 8, 13) %1) unnamed_addr #5 {
  %3 = load i8, ptr %0, align 1, !tbaa !4
  %.not = icmp sgt i8 %3, -1
  br i1 %.not, label %.lr.ph.i.i, label %4

4:                                                ; preds = %2
  %5 = and i8 %3, 64
  %.not.i = icmp ne i8 %5, 0
  %6 = and i8 %3, 63
  %.024.i = sext i1 %.not.i to i64
  %.021.i = select i1 %.not.i, i8 %3, i8 %6
  %.0.i = select i1 %.not.i, i32 255, i32 0
  %.not45.i = icmp eq i64 %1, 8
  br i1 %.not45.i, label %._crit_edge.i, label %.lr.ph.preheader.i

.lr.ph.preheader.i:                               ; preds = %4
  %7 = getelementptr i8, ptr %0, i64 %1
  %scevgep.i = getelementptr i8, ptr %7, i64 -8
  br label %.lr.ph.i

.lr.ph.i:                                         ; preds = %11, %.lr.ph.preheader.i
  %.140.i = phi i8 [ %14, %11 ], [ %.021.i, %.lr.ph.preheader.i ]
  %.02239.i = phi ptr [ %13, %11 ], [ %0, %.lr.ph.preheader.i ]
  %.02638.i = phi i64 [ %12, %11 ], [ %1, %.lr.ph.preheader.i ]
  %8 = zext i8 %.140.i to i32
  %.not34.i = icmp eq i32 %.0.i, %8
  br i1 %.not34.i, label %11, label %9

9:                                                ; preds = %.lr.ph.i
  %10 = select i1 %.not.i, i64 -9223372036854775808, i64 9223372036854775807
  br label %tar_atol256.exit

11:                                               ; preds = %.lr.ph.i
  %12 = add nsw i64 %.02638.i, -1
  %13 = getelementptr inbounds nuw i8, ptr %.02239.i, i64 1
  %14 = load i8, ptr %13, align 1, !tbaa !4
  %15 = icmp ugt i64 %12, 8
  br i1 %15, label %.lr.ph.i, label %._crit_edge.i, !llvm.loop !90

._crit_edge.i:                                    ; preds = %11, %4
  %.022.lcssa.i = phi ptr [ %0, %4 ], [ %scevgep.i, %11 ]
  %.1.lcssa.i = phi i8 [ %.021.i, %4 ], [ %14, %11 ]
  %16 = zext i8 %.1.lcssa.i to i32
  %17 = xor i32 %.0.i, %16
  %.not31.i = icmp samesign ult i32 %17, 128
  br i1 %.not31.i, label %.preheader.i, label %18

18:                                               ; preds = %._crit_edge.i
  %19 = select i1 %.not.i, i64 -9223372036854775808, i64 9223372036854775807
  br label %tar_atol256.exit

.preheader.i:                                     ; preds = %._crit_edge.i, %.preheader.i
  %20 = phi i64 [ %26, %.preheader.i ], [ 7, %._crit_edge.i ]
  %.244.i = phi i8 [ %25, %.preheader.i ], [ %.1.lcssa.i, %._crit_edge.i ]
  %.12343.i = phi ptr [ %24, %.preheader.i ], [ %.022.lcssa.i, %._crit_edge.i ]
  %.12542.i = phi i64 [ %23, %.preheader.i ], [ %.024.i, %._crit_edge.i ]
  %21 = shl i64 %.12542.i, 8
  %22 = zext i8 %.244.i to i64
  %23 = or disjoint i64 %21, %22
  %24 = getelementptr inbounds nuw i8, ptr %.12343.i, i64 1
  %25 = load i8, ptr %24, align 1, !tbaa !4
  %26 = add nsw i64 %20, -1
  %.not32.i = icmp eq i64 %26, 0
  br i1 %.not32.i, label %27, label %.preheader.i, !llvm.loop !91

27:                                               ; preds = %.preheader.i
  %28 = shl i64 %23, 8
  %29 = zext i8 %25 to i64
  %30 = or disjoint i64 %28, %29
  br label %tar_atol256.exit

.lr.ph.i.ithread-pre-split:                       ; preds = %.critedge2.i.i
  %31 = getelementptr inbounds nuw i8, ptr %.04769.i.i, i64 1
  %.pr = load i8, ptr %31, align 1, !tbaa !4
  br label %.lr.ph.i.i

.lr.ph.i.i:                                       ; preds = %2, %.lr.ph.i.ithread-pre-split
  %32 = phi i8 [ %.pr, %.lr.ph.i.ithread-pre-split ], [ %3, %2 ]
  %.04570.i.i = phi i64 [ %33, %.lr.ph.i.ithread-pre-split ], [ %1, %2 ]
  %.04769.i.i = phi ptr [ %31, %.lr.ph.i.ithread-pre-split ], [ %0, %2 ]
  switch i8 %32, label %.preheader.i.i [
    i8 32, label %.critedge2.i.i
    i8 9, label %.critedge2.i.i
    i8 45, label %.critedge53.i.i
  ]

.critedge2.i.i:                                   ; preds = %.lr.ph.i.i, %.lr.ph.i.i
  %33 = add nsw i64 %.04570.i.i, -1
  %.not.i.i = icmp eq i64 %33, 0
  br i1 %.not.i.i, label %tar_atol256.exit, label %.lr.ph.i.ithread-pre-split, !llvm.loop !92

.critedge53.i.i:                                  ; preds = %.lr.ph.i.i
  %34 = add i64 %.04570.i.i, -1
  %.not51.i.i = icmp eq i64 %34, 0
  br i1 %.not51.i.i, label %tar_atol256.exit, label %.preheaderthread-pre-split.i.i

.preheaderthread-pre-split.i.i:                   ; preds = %.critedge53.i.i
  %35 = getelementptr inbounds nuw i8, ptr %.04769.i.i, i64 1
  %.039.in.in71.pr.i.i = load i8, ptr %35, align 1, !tbaa !4
  br label %.preheader.i.i

.preheader.i.i:                                   ; preds = %.lr.ph.i.i, %.preheaderthread-pre-split.i.i
  %.039.in.in71.i.i = phi i8 [ %.039.in.in71.pr.i.i, %.preheaderthread-pre-split.i.i ], [ %32, %.lr.ph.i.i ]
  %36 = phi i1 [ true, %.preheaderthread-pre-split.i.i ], [ false, %.lr.ph.i.i ]
  %.04096.i.i = phi i64 [ 0, %.preheaderthread-pre-split.i.i ], [ 7, %.lr.ph.i.i ]
  %.04195.i.i = phi i64 [ 1152921504606846976, %.preheaderthread-pre-split.i.i ], [ 1152921504606846975, %.lr.ph.i.i ]
  %.04294.i.i = phi i64 [ -9223372036854775808, %.preheaderthread-pre-split.i.i ], [ 9223372036854775807, %.lr.ph.i.i ]
  %.14693.i.i = phi i64 [ %34, %.preheaderthread-pre-split.i.i ], [ %.04570.i.i, %.lr.ph.i.i ]
  %.14892.i.i = phi ptr [ %35, %.preheaderthread-pre-split.i.i ], [ %.04769.i.i, %.lr.ph.i.i ]
  %37 = icmp sgt i8 %.039.in.in71.i.i, 47
  br i1 %37, label %.lr.ph78.i.i, label %.critedge4.i.i

.lr.ph78.i.i:                                     ; preds = %.preheader.i.i, %45
  %.03977.in.in.i.i = phi i8 [ %.039.in.in.i.i, %45 ], [ %.039.in.in71.i.i, %.preheader.i.i ]
  %.176.i.i = phi i64 [ %47, %45 ], [ 0, %.preheader.i.i ]
  %.275.i.i = phi i64 [ %49, %45 ], [ %.14693.i.i, %.preheader.i.i ]
  %.24974.i.i = phi ptr [ %48, %45 ], [ %.14892.i.i, %.preheader.i.i ]
  %.03977.in.i.i = zext nneg i8 %.03977.in.in.i.i to i32
  %.03977.i.i = add nsw i32 %.03977.in.i.i, -48
  %38 = icmp samesign ult i32 %.03977.i.i, 8
  %39 = icmp ne i64 %.275.i.i, 0
  %or.cond.i.i = select i1 %38, i1 %39, i1 false
  br i1 %or.cond.i.i, label %40, label %.critedge4.i.i

40:                                               ; preds = %.lr.ph78.i.i
  %41 = icmp sgt i64 %.176.i.i, %.04195.i.i
  br i1 %41, label %tar_atol256.exit, label %42

42:                                               ; preds = %40
  %43 = icmp ne i64 %.176.i.i, %.04195.i.i
  %44 = zext nneg i32 %.03977.i.i to i64
  %.not52.i.i = icmp samesign ugt i64 %.04096.i.i, %44
  %or.cond54.i.i = select i1 %43, i1 true, i1 %.not52.i.i
  br i1 %or.cond54.i.i, label %45, label %tar_atol256.exit

45:                                               ; preds = %42
  %46 = shl nsw i64 %.176.i.i, 3
  %47 = or disjoint i64 %46, %44
  %48 = getelementptr inbounds nuw i8, ptr %.24974.i.i, i64 1
  %49 = add i64 %.275.i.i, -1
  %.039.in.in.i.i = load i8, ptr %48, align 1, !tbaa !4
  %50 = icmp sgt i8 %.039.in.in.i.i, 47
  br i1 %50, label %.lr.ph78.i.i, label %.critedge4.i.i, !llvm.loop !93

.critedge4.i.i:                                   ; preds = %45, %.lr.ph78.i.i, %.preheader.i.i
  %.043.i.i = phi i64 [ 0, %.preheader.i.i ], [ %.176.i.i, %.lr.ph78.i.i ], [ %47, %45 ]
  %51 = sub nsw i64 0, %.043.i.i
  %spec.select.i.i = select i1 %36, i64 %51, i64 %.043.i.i
  br label %tar_atol256.exit

tar_atol256.exit:                                 ; preds = %.critedge2.i.i, %42, %40, %.critedge4.i.i, %.critedge53.i.i, %27, %18, %9
  %.0 = phi i64 [ %10, %9 ], [ %19, %18 ], [ %30, %27 ], [ 0, %.critedge53.i.i ], [ %spec.select.i.i, %.critedge4.i.i ], [ %.04294.i.i, %40 ], [ %.04294.i.i, %42 ], [ 0, %.critedge2.i.i ]
  ret i64 %.0
}